target datalayout = "e-m:e-p270:32:32-p271:32:32-p272:64:64-i64:64-i128:128-f80:128-n8:16:32:64-S128"
target triple = "x86_64-pc-linux-gnu"

%struct.Abc_Frame_t_ = type { ptr, ptr, ptr, ptr, ptr, ptr, ptr, ptr, ptr, ptr, i32, i32, i32, i32, i32, ptr, float, float, i32, i32, ptr, ptr, ptr, double, double, ptr, ptr, ptr, ptr, ptr, ptr, ptr, ptr, ptr, ptr, ptr, ptr, float, ptr, i32, ptr, ptr, ptr, ptr, ptr, i32, i32, i32, i32, i32, i32, ptr, ptr, ptr, ptr, ptr, ptr, i32, i32, ptr, ptr, ptr, ptr, ptr, ptr, ptr, ptr, ptr, ptr, ptr, ptr, ptr, ptr, ptr, ptr, ptr, ptr, ptr, ptr, ptr, ptr, ptr, ptr, ptr, ptr, ptr, ptr, ptr, ptr }

@globalUtilOptind = external global i32, align 4
@.str.113 = private unnamed_addr constant [4 x i8] c"yes\00", align 1
@.str.114 = private unnamed_addr constant [3 x i8] c"no\00", align 1
@.str.115 = private unnamed_addr constant [61 x i8] c"\09-c     : toggle network check after reading [default = %s]\0A\00", align 1
@.str.118 = private unnamed_addr constant [38 x i8] c"\09-h     : prints the command summary\0A\00", align 1
@.str.170 = private unnamed_addr constant [7 x i8] c"zbdxch\00", align 1
@.str.171 = private unnamed_addr constant [30 x i8] c"Reading PLA file has failed.\0A\00", align 1
@.str.172 = private unnamed_addr constant [34 x i8] c"usage: read_pla [-zbdxch] <file>\0A\00", align 1
@.str.173 = private unnamed_addr constant [36 x i8] c"\09         reads the network in PLA\0A\00", align 1
@.str.174 = private unnamed_addr constant [60 x i8] c"\09-z     : toggle reading on-set and off-set [default = %s]\0A\00", align 1
@.str.175 = private unnamed_addr constant [8 x i8] c"off-set\00", align 1
@.str.176 = private unnamed_addr constant [7 x i8] c"on-set\00", align 1
@.str.177 = private unnamed_addr constant [75 x i8] c"\09-b     : toggle reading both on-set and off-set as on-set [default = %s]\0A\00", align 1
@.str.178 = private unnamed_addr constant [74 x i8] c"\09-d     : toggle reading both on-set and dc-set as on-set [default = %s]\0A\00", align 1
@.str.179 = private unnamed_addr constant [71 x i8] c"\09-x     : toggle reading Exclusive SOP rather than SOP [default = %s]\0A\00", align 1
@.str.180 = private unnamed_addr constant [39 x i8] c"\09file   : the name of a file to read\0A\0A\00", align 1
@.str.181 = private unnamed_addr constant [76 x i8] c"\09         Please note that the PLA parser is somewhat slow for large SOPs.\0A\00", align 1
@.str.182 = private unnamed_addr constant [99 x i8] c"\09         On the other hand, BLIF parser reads a 3M SOP and converts it into a 7.5K AIG in 1 sec:\0A\00", align 1
@.str.183 = private unnamed_addr constant [69 x i8] c"\09         abc 16> read test.blif; ps; bdd -s; ps; muxes; strash; ps\0A\00", align 1
@.str.184 = private unnamed_addr constant [120 x i8] c"\09         test                      : i/o =   25/    1  lat =    0  nd =     1  edge =     25  cube = 2910537  lev = 1\0A\00", align 1
@.str.185 = private unnamed_addr constant [120 x i8] c"\09         test                      : i/o =   25/    1  lat =    0  nd =     1  edge =     25  bdd  =    2937  lev = 1\0A\00", align 1
@.str.186 = private unnamed_addr constant [94 x i8] c"\09         test                      : i/o =   25/    1  lat =    0  and =     7514  lev = 48\0A\00", align 1
@.str.187 = private unnamed_addr constant [24 x i8] c"\09         abc 19> time\0A\00", align 1
@.str.188 = private unnamed_addr constant [53 x i8] c"\09         elapse: 1.05 seconds, total: 1.05 seconds\0A\00", align 1

; Function Attrs: nounwind uwtable
define internal i32 @IoCommandReadPla(ptr noundef %0, i32 noundef %1, ptr noundef %2) #0 {
  %4 = alloca i32, align 4
  %5 = alloca ptr, align 8
  %6 = alloca i32, align 4
  %7 = alloca ptr, align 8
  %8 = alloca ptr, align 8
  %9 = alloca ptr, align 8
  %10 = alloca i32, align 4
  %11 = alloca i32, align 4
  %12 = alloca i32, align 4
  %13 = alloca i32, align 4
  %14 = alloca i32, align 4
  %15 = alloca i32, align 4
  %16 = alloca ptr, align 8
  %17 = alloca i32, align 4
  store ptr %0, ptr %5, align 8, !tbaa !3
  store i32 %1, ptr %6, align 4, !tbaa !8
  store ptr %2, ptr %7, align 8, !tbaa !10
  call void @llvm.lifetime.start.p0(i64 8, ptr %8) #11
  call void @llvm.lifetime.start.p0(i64 8, ptr %9) #11
  call void @llvm.lifetime.start.p0(i64 4, ptr %10) #11
  call void @llvm.lifetime.start.p0(i64 4, ptr %11) #11
  store i32 0, ptr %11, align 4, !tbaa !8
  call void @llvm.lifetime.start.p0(i64 4, ptr %12) #11
  store i32 0, ptr %12, align 4, !tbaa !8
  call void @llvm.lifetime.start.p0(i64 4, ptr %13) #11
  store i32 0, ptr %13, align 4, !tbaa !8
  call void @llvm.lifetime.start.p0(i64 4, ptr %14) #11
  store i32 0, ptr %14, align 4, !tbaa !8
  call void @llvm.lifetime.start.p0(i64 4, ptr %15) #11
  store i32 1, ptr %15, align 4, !tbaa !8
  call void (...) @Extra_UtilGetoptReset()
  br label %18

18:                                               ; preds = %42, %3
  %19 = load i32, ptr %6, align 4, !tbaa !8
  %20 = load ptr, ptr %7, align 8, !tbaa !10
  %21 = call i32 @Extra_UtilGetopt(i32 noundef %19, ptr noundef %20, ptr noundef @.str.170)
  store i32 %21, ptr %10, align 4, !tbaa !8
  %22 = icmp ne i32 %21, -1
  br i1 %22, label %23, label %43

23:                                               ; preds = %18
  %24 = load i32, ptr %10, align 4, !tbaa !8
  switch i32 %24, label %41 [
    i32 122, label %25
    i32 98, label %28
    i32 100, label %31
    i32 120, label %34
    i32 99, label %37
    i32 104, label %40
  ]

25:                                               ; preds = %23
  %26 = load i32, ptr %11, align 4, !tbaa !8
  %27 = xor i32 %26, 1
  store i32 %27, ptr %11, align 4, !tbaa !8
  br label %42

28:                                               ; preds = %23
  %29 = load i32, ptr %12, align 4, !tbaa !8
  %30 = xor i32 %29, 1
  store i32 %30, ptr %12, align 4, !tbaa !8
  br label %42

31:                                               ; preds = %23
  %32 = load i32, ptr %13, align 4, !tbaa !8
  %33 = xor i32 %32, 1
  store i32 %33, ptr %13, align 4, !tbaa !8
  br label %42

34:                                               ; preds = %23
  %35 = load i32, ptr %14, align 4, !tbaa !8
  %36 = xor i32 %35, 1
  store i32 %36, ptr %14, align 4, !tbaa !8
  br label %42

37:                                               ; preds = %23
  %38 = load i32, ptr %15, align 4, !tbaa !8
  %39 = xor i32 %38, 1
  store i32 %39, ptr %15, align 4, !tbaa !8
  br label %42

40:                                               ; preds = %23
  br label %97

41:                                               ; preds = %23
  br label %97

42:                                               ; preds = %37, %34, %31, %28, %25
  br label %18, !llvm.loop !65

43:                                               ; preds = %18
  %44 = load i32, ptr %6, align 4, !tbaa !8
  %45 = load i32, ptr @globalUtilOptind, align 4, !tbaa !8
  %46 = add nsw i32 %45, 1
  %47 = icmp ne i32 %44, %46
  br i1 %47, label %48, label %49

48:                                               ; preds = %43
  br label %97

49:                                               ; preds = %43
  %50 = load ptr, ptr %7, align 8, !tbaa !10
  %51 = load i32, ptr @globalUtilOptind, align 4, !tbaa !8
  %52 = sext i32 %51 to i64
  %53 = getelementptr inbounds ptr, ptr %50, i64 %52
  %54 = load ptr, ptr %53, align 8, !tbaa !14
  store ptr %54, ptr %9, align 8, !tbaa !14
  %55 = load i32, ptr %11, align 4, !tbaa !8
  %56 = icmp ne i32 %55, 0
  br i1 %56, label %66, label %57

57:                                               ; preds = %49
  %58 = load i32, ptr %12, align 4, !tbaa !8
  %59 = icmp ne i32 %58, 0
  br i1 %59, label %66, label %60

60:                                               ; preds = %57
  %61 = load i32, ptr %13, align 4, !tbaa !8
  %62 = icmp ne i32 %61, 0
  br i1 %62, label %66, label %63

63:                                               ; preds = %60
  %64 = load i32, ptr %14, align 4, !tbaa !8
  %65 = icmp ne i32 %64, 0
  br i1 %65, label %66, label %85

66:                                               ; preds = %63, %60, %57, %49
  call void @llvm.lifetime.start.p0(i64 8, ptr %16) #11
  %67 = load ptr, ptr %9, align 8, !tbaa !14
  %68 = load i32, ptr %11, align 4, !tbaa !8
  %69 = load i32, ptr %12, align 4, !tbaa !8
  %70 = load i32, ptr %13, align 4, !tbaa !8
  %71 = load i32, ptr %14, align 4, !tbaa !8
  %72 = load i32, ptr %15, align 4, !tbaa !8
  %73 = call ptr @Io_ReadPla(ptr noundef %67, i32 noundef %68, i32 noundef %69, i32 noundef %70, i32 noundef %71, i32 noundef %72)
  store ptr %73, ptr %8, align 8, !tbaa !18
  %74 = load ptr, ptr %8, align 8, !tbaa !18
  %75 = icmp eq ptr %74, null
  br i1 %75, label %76, label %78

76:                                               ; preds = %66
  %77 = call i32 (ptr, ...) @printf(ptr noundef @.str.171)
  store i32 1, ptr %4, align 4
  store i32 1, ptr %17, align 4
  br label %82

78:                                               ; preds = %66
  %79 = load ptr, ptr %8, align 8, !tbaa !18
  store ptr %79, ptr %16, align 8, !tbaa !18
  %80 = call ptr @Abc_NtkToLogic(ptr noundef %79)
  store ptr %80, ptr %8, align 8, !tbaa !18
  %81 = load ptr, ptr %16, align 8, !tbaa !18
  call void @Abc_NtkDelete(ptr noundef %81)
  store i32 0, ptr %17, align 4
  br label %82

82:                                               ; preds = %78, %76
  call void @llvm.lifetime.end.p0(i64 8, ptr %16) #11
  %83 = load i32, ptr %17, align 4
  switch i32 %83, label %181 [
    i32 0, label %84
  ]

84:                                               ; preds = %82
  br label %89

85:                                               ; preds = %63
  %86 = load ptr, ptr %9, align 8, !tbaa !14
  %87 = load i32, ptr %15, align 4, !tbaa !8
  %88 = call ptr @Io_Read(ptr noundef %86, i32 noundef 15, i32 noundef %87, i32 noundef 0)
  store ptr %88, ptr %8, align 8, !tbaa !18
  br label %89

89:                                               ; preds = %85, %84
  %90 = load ptr, ptr %8, align 8, !tbaa !18
  %91 = icmp eq ptr %90, null
  br i1 %91, label %92, label %93

92:                                               ; preds = %89
  store i32 1, ptr %4, align 4
  store i32 1, ptr %17, align 4
  br label %181

93:                                               ; preds = %89
  %94 = load ptr, ptr %5, align 8, !tbaa !3
  %95 = load ptr, ptr %8, align 8, !tbaa !18
  call void @Abc_FrameReplaceCurrentNetwork(ptr noundef %94, ptr noundef %95)
  %96 = load ptr, ptr %5, align 8, !tbaa !3
  call void @Abc_FrameClearVerifStatus(ptr noundef %96)
  store i32 0, ptr %4, align 4
  store i32 1, ptr %17, align 4
  br label %181

97:                                               ; preds = %48, %41, %40
  %98 = load ptr, ptr %5, align 8, !tbaa !3
  %99 = getelementptr inbounds nuw %struct.Abc_Frame_t_, ptr %98, i32 0, i32 21
  %100 = load ptr, ptr %99, align 8, !tbaa !24
  %101 = call i32 (ptr, ptr, ...) @fprintf(ptr noundef %100, ptr noundef @.str.172) #11
  %102 = load ptr, ptr %5, align 8, !tbaa !3
  %103 = getelementptr inbounds nuw %struct.Abc_Frame_t_, ptr %102, i32 0, i32 21
  %104 = load ptr, ptr %103, align 8, !tbaa !24
  %105 = call i32 (ptr, ptr, ...) @fprintf(ptr noundef %104, ptr noundef @.str.173) #11
  %106 = load ptr, ptr %5, align 8, !tbaa !3
  %107 = getelementptr inbounds nuw %struct.Abc_Frame_t_, ptr %106, i32 0, i32 21
  %108 = load ptr, ptr %107, align 8, !tbaa !24
  %109 = load i32, ptr %11, align 4, !tbaa !8
  %110 = icmp ne i32 %109, 0
  %111 = select i1 %110, ptr @.str.175, ptr @.str.176
  %112 = call i32 (ptr, ptr, ...) @fprintf(ptr noundef %108, ptr noundef @.str.174, ptr noundef %111) #11
  %113 = load ptr, ptr %5, align 8, !tbaa !3
  %114 = getelementptr inbounds nuw %struct.Abc_Frame_t_, ptr %113, i32 0, i32 21
  %115 = load ptr, ptr %114, align 8, !tbaa !24
  %116 = load i32, ptr %12, align 4, !tbaa !8
  %117 = icmp ne i32 %116, 0
  %118 = select i1 %117, ptr @.str.175, ptr @.str.176
  %119 = call i32 (ptr, ptr, ...) @fprintf(ptr noundef %115, ptr noundef @.str.177, ptr noundef %118) #11
  %120 = load ptr, ptr %5, align 8, !tbaa !3
  %121 = getelementptr inbounds nuw %struct.Abc_Frame_t_, ptr %120, i32 0, i32 21
  %122 = load ptr, ptr %121, align 8, !tbaa !24
  %123 = load i32, ptr %13, align 4, !tbaa !8
  %124 = icmp ne i32 %123, 0
  %125 = select i1 %124, ptr @.str.175, ptr @.str.176
  %126 = call i32 (ptr, ptr, ...) @fprintf(ptr noundef %122, ptr noundef @.str.178, ptr noundef %125) #11
  %127 = load ptr, ptr %5, align 8, !tbaa !3
  %128 = getelementptr inbounds nuw %struct.Abc_Frame_t_, ptr %127, i32 0, i32 21
  %129 = load ptr, ptr %128, align 8, !tbaa !24
  %130 = load i32, ptr %14, align 4, !tbaa !8
  %131 = icmp ne i32 %130, 0
  %132 = select i1 %131, ptr @.str.113, ptr @.str.114
  %133 = call i32 (ptr, ptr, ...) @fprintf(ptr noundef %129, ptr noundef @.str.179, ptr noundef %132) #11
  %134 = load ptr, ptr %5, align 8, !tbaa !3
  %135 = getelementptr inbounds nuw %struct.Abc_Frame_t_, ptr %134, i32 0, i32 21
  %136 = load ptr, ptr %135, align 8, !tbaa !24
  %137 = load i32, ptr %15, align 4, !tbaa !8
  %138 = icmp ne i32 %137, 0
  %139 = select i1 %138, ptr @.str.113, ptr @.str.114
  %140 = call i32 (ptr, ptr, ...) @fprintf(ptr noundef %136, ptr noundef @.str.115, ptr noundef %139) #11
  %141 = load ptr, ptr %5, align 8, !tbaa !3
  %142 = getelementptr inbounds nuw %struct.Abc_Frame_t_, ptr %141, i32 0, i32 21
  %143 = load ptr, ptr %142, align 8, !tbaa !24
  %144 = call i32 (ptr, ptr, ...) @fprintf(ptr noundef %143, ptr noundef @.str.118) #11
  %145 = load ptr, ptr %5, align 8, !tbaa !3
  %146 = getelementptr inbounds nuw %struct.Abc_Frame_t_, ptr %145, i32 0, i32 21
  %147 = load ptr, ptr %146, align 8, !tbaa !24
  %148 = call i32 (ptr, ptr, ...) @fprintf(ptr noundef %147, ptr noundef @.str.180) #11
  %149 = load ptr, ptr %5, align 8, !tbaa !3
  %150 = getelementptr inbounds nuw %struct.Abc_Frame_t_, ptr %149, i32 0, i32 21
  %151 = load ptr, ptr %150, align 8, !tbaa !24
  %152 = call i32 (ptr, ptr, ...) @fprintf(ptr noundef %151, ptr noundef @.str.181) #11
  %153 = load ptr, ptr %5, align 8, !tbaa !3
  %154 = getelementptr inbounds nuw %struct.Abc_Frame_t_, ptr %153, i32 0, i32 21
  %155 = load ptr, ptr %154, align 8, !tbaa !24
  %156 = call i32 (ptr, ptr, ...) @fprintf(ptr noundef %155, ptr noundef @.str.182) #11
  %157 = load ptr, ptr %5, align 8, !tbaa !3
  %158 = getelementptr inbounds nuw %struct.Abc_Frame_t_, ptr %157, i32 0, i32 21
  %159 = load ptr, ptr %158, align 8, !tbaa !24
  %160 = call i32 (ptr, ptr, ...) @fprintf(ptr noundef %159, ptr noundef @.str.183) #11
  %161 = load ptr, ptr %5, align 8, !tbaa !3
  %162 = getelementptr inbounds nuw %struct.Abc_Frame_t_, ptr %161, i32 0, i32 21
  %163 = load ptr, ptr %162, align 8, !tbaa !24
  %164 = call i32 (ptr, ptr, ...) @fprintf(ptr noundef %163, ptr noundef @.str.184) #11
  %165 = load ptr, ptr %5, align 8, !tbaa !3
  %166 = getelementptr inbounds nuw %struct.Abc_Frame_t_, ptr %165, i32 0, i32 21
  %167 = load ptr, ptr %166, align 8, !tbaa !24
  %168 = call i32 (ptr, ptr, ...) @fprintf(ptr noundef %167, ptr noundef @.str.185) #11
  %169 = load ptr, ptr %5, align 8, !tbaa !3
  %170 = getelementptr inbounds nuw %struct.Abc_Frame_t_, ptr %169, i32 0, i32 21
  %171 = load ptr, ptr %170, align 8, !tbaa !24
  %172 = call i32 (ptr, ptr, ...) @fprintf(ptr noundef %171, ptr noundef @.str.186) #11
  %173 = load ptr, ptr %5, align 8, !tbaa !3
  %174 = getelementptr inbounds nuw %struct.Abc_Frame_t_, ptr %173, i32 0, i32 21
  %175 = load ptr, ptr %174, align 8, !tbaa !24
  %176 = call i32 (ptr, ptr, ...) @fprintf(ptr noundef %175, ptr noundef @.str.187) #11
  %177 = load ptr, ptr %5, align 8, !tbaa !3
  %178 = getelementptr inbounds nuw %struct.Abc_Frame_t_, ptr %177, i32 0, i32 21
  %179 = load ptr, ptr %178, align 8, !tbaa !24
  %180 = call i32 (ptr, ptr, ...) @fprintf(ptr noundef %179, ptr noundef @.str.188) #11
  store i32 1, ptr %4, align 4
  store i32 1, ptr %17, align 4
  br label %181

181:                                              ; preds = %97, %93, %92, %82
  call void @llvm.lifetime.end.p0(i64 4, ptr %15) #11
  call void @llvm.lifetime.end.p0(i64 4, ptr %14) #11
  call void @llvm.lifetime.end.p0(i64 4, ptr %13) #11
  call void @llvm.lifetime.end.p0(i64 4, ptr %12) #11
  call void @llvm.lifetime.end.p0(i64 4, ptr %11) #11
  call void @llvm.lifetime.end.p0(i64 4, ptr %10) #11
  call void @llvm.lifetime.end.p0(i64 8, ptr %9) #11
  call void @llvm.lifetime.end.p0(i64 8, ptr %8) #11
  %182 = load i32, ptr %4, align 4
  ret i32 %182
}