; Function Attrs: nounwind uwtable
define internal range(i32 0, 2) i32 @IoCommandReadPla(ptr noundef %0, i32 noundef %1, ptr noundef %2) #0 {
  tail call void (...) @Extra_UtilGetoptReset() #18
  br label %.outer

.outer:                                           ; preds = %6, %3
  %.066.ph = phi i32 [ %7, %6 ], [ 0, %3 ]
  %.064.ph = phi i32 [ %.064.ph122, %6 ], [ 0, %3 ]
  %.062.ph = phi i32 [ %.062.ph127, %6 ], [ 0, %3 ]
  %.060.ph = phi i32 [ %.060.ph131, %6 ], [ 0, %3 ]
  %.058.ph = phi i32 [ %.058, %6 ], [ 1, %3 ]
  br label %.outer121

.outer121:                                        ; preds = %.outer, %8
  %.064.ph122 = phi i32 [ %.064.ph, %.outer ], [ %9, %8 ]
  %.062.ph123 = phi i32 [ %.062.ph, %.outer ], [ %.062.ph127, %8 ]
  %.060.ph124 = phi i32 [ %.060.ph, %.outer ], [ %.060.ph131, %8 ]
  %.058.ph125 = phi i32 [ %.058.ph, %.outer ], [ %.058, %8 ]
  br label %.outer126

.outer126:                                        ; preds = %.outer121, %10
  %.062.ph127 = phi i32 [ %.062.ph123, %.outer121 ], [ %11, %10 ]
  %.060.ph128 = phi i32 [ %.060.ph124, %.outer121 ], [ %.060.ph131, %10 ]
  %.058.ph129 = phi i32 [ %.058.ph125, %.outer121 ], [ %.058, %10 ]
  br label %.outer130

.outer130:                                        ; preds = %.outer126, %12
  %.060.ph131 = phi i32 [ %.060.ph128, %.outer126 ], [ %13, %12 ]
  %.058.ph132 = phi i32 [ %.058.ph129, %.outer126 ], [ %.058, %12 ]
  br label %4

4:                                                ; preds = %.outer130, %14
  %.058 = phi i32 [ %15, %14 ], [ %.058.ph132, %.outer130 ]
  %5 = tail call i32 @Extra_UtilGetopt(i32 noundef %1, ptr noundef %2, ptr noundef nonnull @.str.170) #18
  switch i32 %5, label %.loopexit [
    i32 -1, label %16
    i32 122, label %6
    i32 98, label %8
    i32 100, label %10
    i32 120, label %12
    i32 99, label %14
  ]

6:                                                ; preds = %4
  %7 = xor i32 %.066.ph, 1
  br label %.outer, !llvm.loop !62

8:                                                ; preds = %4
  %9 = xor i32 %.064.ph122, 1
  br label %.outer121, !llvm.loop !62

10:                                               ; preds = %4
  %11 = xor i32 %.062.ph127, 1
  br label %.outer126, !llvm.loop !62

12:                                               ; preds = %4
  %13 = xor i32 %.060.ph131, 1
  br label %.outer130, !llvm.loop !62

14:                                               ; preds = %4
  %15 = xor i32 %.058, 1
  br label %4, !llvm.loop !62

16:                                               ; preds = %4
  %17 = load i32, ptr @globalUtilOptind, align 4, !tbaa !3
  %18 = add nsw i32 %17, 1
  %.not73 = icmp eq i32 %1, %18
  br i1 %.not73, label %19, label %.loopexit

19:                                               ; preds = %16
  %20 = sext i32 %17 to i64
  %21 = getelementptr inbounds ptr, ptr %2, i64 %20
  %22 = load ptr, ptr %21, align 8, !tbaa !9
  %23 = icmp ne i32 %.066.ph, 0
  %24 = icmp ne i32 %.064.ph122, 0
  %or.cond = select i1 %23, i1 true, i1 %24
  %25 = icmp ne i32 %.062.ph127, 0
  %or.cond3 = select i1 %or.cond, i1 true, i1 %25
  %26 = icmp ne i32 %.060.ph131, 0
  %or.cond5 = select i1 %or.cond3, i1 true, i1 %26
  br i1 %or.cond5, label %27, label %31

27:                                               ; preds = %19
  %28 = tail call ptr @Io_ReadPla(ptr noundef %22, i32 noundef %.066.ph, i32 noundef %.064.ph122, i32 noundef %.062.ph127, i32 noundef %.060.ph131, i32 noundef %.058) #18
  %.not74 = icmp eq ptr %28, null
  br i1 %.not74, label %.thread, label %29

.thread:                                          ; preds = %27
  %puts = tail call i32 @puts(ptr nonnull dereferenceable(1) @str.3)
  br label %76

29:                                               ; preds = %27
  %30 = tail call ptr @Abc_NtkToLogic(ptr noundef nonnull %28) #18
  tail call void @Abc_NtkDelete(ptr noundef nonnull %28) #18
  br label %33

31:                                               ; preds = %19
  %32 = tail call ptr @Io_Read(ptr noundef %22, i32 noundef 15, i32 noundef %.058, i32 noundef 0) #18
  br label %33

33:                                               ; preds = %29, %31
  %.169 = phi ptr [ %30, %29 ], [ %32, %31 ]
  %34 = icmp eq ptr %.169, null
  br i1 %34, label %76, label %35

35:                                               ; preds = %33
  tail call void @Abc_FrameReplaceCurrentNetwork(ptr noundef %0, ptr noundef nonnull %.169) #18
  tail call void @Abc_FrameClearVerifStatus(ptr noundef %0) #18
  br label %76

.loopexit:                                        ; preds = %4, %16
  %36 = getelementptr inbounds nuw i8, ptr %0, i64 136
  %37 = load ptr, ptr %36, align 8, !tbaa !34
  %38 = tail call i64 @fwrite(ptr nonnull @.str.172, i64 33, i64 1, ptr %37)
  %39 = load ptr, ptr %36, align 8, !tbaa !34
  %40 = tail call i64 @fwrite(ptr nonnull @.str.173, i64 35, i64 1, ptr %39)
  %41 = load ptr, ptr %36, align 8, !tbaa !34
  %.not75 = icmp eq i32 %.066.ph, 0
  %42 = select i1 %.not75, ptr @.str.176, ptr @.str.175
  %43 = tail call i32 (ptr, ptr, ...) @fprintf(ptr noundef %41, ptr noundef nonnull @.str.174, ptr noundef nonnull %42) #18
  %44 = load ptr, ptr %36, align 8, !tbaa !34
  %.not76 = icmp eq i32 %.064.ph122, 0
  %45 = select i1 %.not76, ptr @.str.176, ptr @.str.175
  %46 = tail call i32 (ptr, ptr, ...) @fprintf(ptr noundef %44, ptr noundef nonnull @.str.177, ptr noundef nonnull %45) #18
  %47 = load ptr, ptr %36, align 8, !tbaa !34
  %.not77 = icmp eq i32 %.062.ph127, 0
  %48 = select i1 %.not77, ptr @.str.176, ptr @.str.175
  %49 = tail call i32 (ptr, ptr, ...) @fprintf(ptr noundef %47, ptr noundef nonnull @.str.178, ptr noundef nonnull %48) #18
  %50 = load ptr, ptr %36, align 8, !tbaa !34
  %.not78 = icmp eq i32 %.060.ph131, 0
  %51 = select i1 %.not78, ptr @.str.114, ptr @.str.113
  %52 = tail call i32 (ptr, ptr, ...) @fprintf(ptr noundef %50, ptr noundef nonnull @.str.179, ptr noundef nonnull %51) #18
  %53 = load ptr, ptr %36, align 8, !tbaa !34
  %.not79 = icmp eq i32 %.058, 0
  %54 = select i1 %.not79, ptr @.str.114, ptr @.str.113
  %55 = tail call i32 (ptr, ptr, ...) @fprintf(ptr noundef %53, ptr noundef nonnull @.str.115, ptr noundef nonnull %54) #18
  %56 = load ptr, ptr %36, align 8, !tbaa !34
  %57 = tail call i64 @fwrite(ptr nonnull @.str.118, i64 37, i64 1, ptr %56)
  %58 = load ptr, ptr %36, align 8, !tbaa !34
  %59 = tail call i64 @fwrite(ptr nonnull @.str.180, i64 38, i64 1, ptr %58)
  %60 = load ptr, ptr %36, align 8, !tbaa !34
  %61 = tail call i64 @fwrite(ptr nonnull @.str.181, i64 75, i64 1, ptr %60)
  %62 = load ptr, ptr %36, align 8, !tbaa !34
  %63 = tail call i64 @fwrite(ptr nonnull @.str.182, i64 98, i64 1, ptr %62)
  %64 = load ptr, ptr %36, align 8, !tbaa !34
  %65 = tail call i64 @fwrite(ptr nonnull @.str.183, i64 68, i64 1, ptr %64)
  %66 = load ptr, ptr %36, align 8, !tbaa !34
  %67 = tail call i64 @fwrite(ptr nonnull @.str.184, i64 119, i64 1, ptr %66)
  %68 = load ptr, ptr %36, align 8, !tbaa !34
  %69 = tail call i64 @fwrite(ptr nonnull @.str.185, i64 119, i64 1, ptr %68)
  %70 = load ptr, ptr %36, align 8, !tbaa !34
  %71 = tail call i64 @fwrite(ptr nonnull @.str.186, i64 93, i64 1, ptr %70)
  %72 = load ptr, ptr %36, align 8, !tbaa !34
  %73 = tail call i64 @fwrite(ptr nonnull @.str.187, i64 23, i64 1, ptr %72)
  %74 = load ptr, ptr %36, align 8, !tbaa !34
  %75 = tail call i64 @fwrite(ptr nonnull @.str.188, i64 52, i64 1, ptr %74)
  br label %76

76:                                               ; preds = %.thread, %33, %.loopexit, %35
  %.1 = phi i32 [ 1, %.loopexit ], [ 0, %35 ], [ 1, %33 ], [ 1, %.thread ]
  ret i32 %.1
}